
hoge_clang_nodiv:     file format elf64-x86-64


Disassembly of section .init:

0000000000001000 <_init>:
    1000:	f3 0f 1e fa          	endbr64
    1004:	48 83 ec 08          	sub    $0x8,%rsp
    1008:	48 8b 05 c1 2f 00 00 	mov    0x2fc1(%rip),%rax        # 3fd0 <__gmon_start__@Base>
    100f:	48 85 c0             	test   %rax,%rax
    1012:	74 02                	je     1016 <_init+0x16>
    1014:	ff d0                	call   *%rax
    1016:	48 83 c4 08          	add    $0x8,%rsp
    101a:	c3                   	ret

Disassembly of section .plt:

0000000000001020 <clock_gettime@plt-0x10>:
    1020:	ff 35 ca 2f 00 00    	push   0x2fca(%rip)        # 3ff0 <_GLOBAL_OFFSET_TABLE_+0x8>
    1026:	ff 25 cc 2f 00 00    	jmp    *0x2fcc(%rip)        # 3ff8 <_GLOBAL_OFFSET_TABLE_+0x10>
    102c:	0f 1f 40 00          	nopl   0x0(%rax)

0000000000001030 <clock_gettime@plt>:
    1030:	ff 25 ca 2f 00 00    	jmp    *0x2fca(%rip)        # 4000 <clock_gettime@GLIBC_2.17>
    1036:	68 00 00 00 00       	push   $0x0
    103b:	e9 e0 ff ff ff       	jmp    1020 <_init+0x20>

0000000000001040 <system@plt>:
    1040:	ff 25 c2 2f 00 00    	jmp    *0x2fc2(%rip)        # 4008 <system@GLIBC_2.2.5>
    1046:	68 01 00 00 00       	push   $0x1
    104b:	e9 d0 ff ff ff       	jmp    1020 <_init+0x20>

0000000000001050 <printf@plt>:
    1050:	ff 25 ba 2f 00 00    	jmp    *0x2fba(%rip)        # 4010 <printf@GLIBC_2.2.5>
    1056:	68 02 00 00 00       	push   $0x2
    105b:	e9 c0 ff ff ff       	jmp    1020 <_init+0x20>

0000000000001060 <memset@plt>:
    1060:	ff 25 b2 2f 00 00    	jmp    *0x2fb2(%rip)        # 4018 <memset@GLIBC_2.2.5>
    1066:	68 03 00 00 00       	push   $0x3
    106b:	e9 b0 ff ff ff       	jmp    1020 <_init+0x20>

0000000000001070 <srand@plt>:
    1070:	ff 25 aa 2f 00 00    	jmp    *0x2faa(%rip)        # 4020 <srand@GLIBC_2.2.5>
    1076:	68 04 00 00 00       	push   $0x4
    107b:	e9 a0 ff ff ff       	jmp    1020 <_init+0x20>

0000000000001080 <time@plt>:
    1080:	ff 25 a2 2f 00 00    	jmp    *0x2fa2(%rip)        # 4028 <time@GLIBC_2.2.5>
    1086:	68 05 00 00 00       	push   $0x5
    108b:	e9 90 ff ff ff       	jmp    1020 <_init+0x20>

0000000000001090 <fflush@plt>:
    1090:	ff 25 9a 2f 00 00    	jmp    *0x2f9a(%rip)        # 4030 <fflush@GLIBC_2.2.5>
    1096:	68 06 00 00 00       	push   $0x6
    109b:	e9 80 ff ff ff       	jmp    1020 <_init+0x20>

00000000000010a0 <rand@plt>:
    10a0:	ff 25 92 2f 00 00    	jmp    *0x2f92(%rip)        # 4038 <rand@GLIBC_2.2.5>
    10a6:	68 07 00 00 00       	push   $0x7
    10ab:	e9 70 ff ff ff       	jmp    1020 <_init+0x20>

Disassembly of section .plt.got:

00000000000010b0 <__cxa_finalize@plt>:
    10b0:	ff 25 2a 2f 00 00    	jmp    *0x2f2a(%rip)        # 3fe0 <__cxa_finalize@GLIBC_2.2.5>
    10b6:	66 90                	xchg   %ax,%ax

Disassembly of section .text:

00000000000010c0 <_start>:
    10c0:	f3 0f 1e fa          	endbr64
    10c4:	31 ed                	xor    %ebp,%ebp
    10c6:	49 89 d1             	mov    %rdx,%r9
    10c9:	5e                   	pop    %rsi
    10ca:	48 89 e2             	mov    %rsp,%rdx
    10cd:	48 83 e4 f0          	and    $0xfffffffffffffff0,%rsp
    10d1:	50                   	push   %rax
    10d2:	54                   	push   %rsp
    10d3:	45 31 c0             	xor    %r8d,%r8d
    10d6:	31 c9                	xor    %ecx,%ecx
    10d8:	48 8d 3d d1 00 00 00 	lea    0xd1(%rip),%rdi        # 11b0 <main>
    10df:	ff 15 d3 2e 00 00    	call   *0x2ed3(%rip)        # 3fb8 <__libc_start_main@GLIBC_2.34>
    10e5:	f4                   	hlt
    10e6:	66 2e 0f 1f 84 00 00 	cs nopw 0x0(%rax,%rax,1)
    10ed:	00 00 00 

00000000000010f0 <deregister_tm_clones>:
    10f0:	48 8d 3d 59 2f 00 00 	lea    0x2f59(%rip),%rdi        # 4050 <__TMC_END__>
    10f7:	48 8d 05 52 2f 00 00 	lea    0x2f52(%rip),%rax        # 4050 <__TMC_END__>
    10fe:	48 39 f8             	cmp    %rdi,%rax
    1101:	74 15                	je     1118 <deregister_tm_clones+0x28>
    1103:	48 8b 05 b6 2e 00 00 	mov    0x2eb6(%rip),%rax        # 3fc0 <_ITM_deregisterTMCloneTable@Base>
    110a:	48 85 c0             	test   %rax,%rax
    110d:	74 09                	je     1118 <deregister_tm_clones+0x28>
    110f:	ff e0                	jmp    *%rax
    1111:	0f 1f 80 00 00 00 00 	nopl   0x0(%rax)
    1118:	c3                   	ret
    1119:	0f 1f 80 00 00 00 00 	nopl   0x0(%rax)

0000000000001120 <register_tm_clones>:
    1120:	48 8d 3d 29 2f 00 00 	lea    0x2f29(%rip),%rdi        # 4050 <__TMC_END__>
    1127:	48 8d 35 22 2f 00 00 	lea    0x2f22(%rip),%rsi        # 4050 <__TMC_END__>
    112e:	48 29 fe             	sub    %rdi,%rsi
    1131:	48 89 f0             	mov    %rsi,%rax
    1134:	48 c1 ee 3f          	shr    $0x3f,%rsi
    1138:	48 c1 f8 03          	sar    $0x3,%rax
    113c:	48 01 c6             	add    %rax,%rsi
    113f:	48 d1 fe             	sar    $1,%rsi
    1142:	74 14                	je     1158 <register_tm_clones+0x38>
    1144:	48 8b 05 8d 2e 00 00 	mov    0x2e8d(%rip),%rax        # 3fd8 <_ITM_registerTMCloneTable@Base>
    114b:	48 85 c0             	test   %rax,%rax
    114e:	74 08                	je     1158 <register_tm_clones+0x38>
    1150:	ff e0                	jmp    *%rax
    1152:	66 0f 1f 44 00 00    	nopw   0x0(%rax,%rax,1)
    1158:	c3                   	ret
    1159:	0f 1f 80 00 00 00 00 	nopl   0x0(%rax)

0000000000001160 <__do_global_dtors_aux>:
    1160:	f3 0f 1e fa          	endbr64
    1164:	80 3d e5 2e 00 00 00 	cmpb   $0x0,0x2ee5(%rip)        # 4050 <__TMC_END__>
    116b:	75 2b                	jne    1198 <__do_global_dtors_aux+0x38>
    116d:	55                   	push   %rbp
    116e:	48 83 3d 6a 2e 00 00 	cmpq   $0x0,0x2e6a(%rip)        # 3fe0 <__cxa_finalize@GLIBC_2.2.5>
    1175:	00 
    1176:	48 89 e5             	mov    %rsp,%rbp
    1179:	74 0c                	je     1187 <__do_global_dtors_aux+0x27>
    117b:	48 8b 3d c6 2e 00 00 	mov    0x2ec6(%rip),%rdi        # 4048 <__dso_handle>
    1182:	e8 29 ff ff ff       	call   10b0 <__cxa_finalize@plt>
    1187:	e8 64 ff ff ff       	call   10f0 <deregister_tm_clones>
    118c:	c6 05 bd 2e 00 00 01 	movb   $0x1,0x2ebd(%rip)        # 4050 <__TMC_END__>
    1193:	5d                   	pop    %rbp
    1194:	c3                   	ret
    1195:	0f 1f 00             	nopl   (%rax)
    1198:	c3                   	ret
    1199:	0f 1f 80 00 00 00 00 	nopl   0x0(%rax)

00000000000011a0 <frame_dummy>:
    11a0:	f3 0f 1e fa          	endbr64
    11a4:	e9 77 ff ff ff       	jmp    1120 <register_tm_clones>
    11a9:	0f 1f 80 00 00 00 00 	nopl   0x0(%rax)

00000000000011b0 <main>:
  static const char arch_str[] = {"unknown");
#endif
  return arch_str;
}

int main(void) {
    11b0:	55                   	push   %rbp
    11b1:	41 57                	push   %r15
    11b3:	41 56                	push   %r14
    11b5:	41 55                	push   %r13
    11b7:	41 54                	push   %r12
    11b9:	53                   	push   %rbx
    11ba:	48 83 ec 18          	sub    $0x18,%rsp
    11be:	31 db                	xor    %ebx,%ebx
    11c0:	4c 8d 7c 24 08       	lea    0x8(%rsp),%r15
    11c5:	41 bd 00 5e d0 b2    	mov    $0xb2d05e00,%r13d
    11cb:	45 31 f6             	xor    %r14d,%r14d
    11ce:	66 90                	xchg   %ax,%ax
  int result = 0;
  int count = 0;
  int64_t total = 0;
  while (total < 3LL * 1000 * 1000 * 1000) {
    srand(time(NULL));                 // FIX random seed
    11d0:	31 ff                	xor    %edi,%edi
    11d2:	e8 a9 fe ff ff       	call   1080 <time@plt>
    11d7:	89 c7                	mov    %eax,%edi
    11d9:	e8 92 fe ff ff       	call   1070 <srand@plt>
    int r = rand() % 10000;            // Get a random integer 0 <= r < 10k
    11de:	e8 bd fe ff ff       	call   10a0 <rand@plt>
    11e3:	4c 63 e0             	movslq %eax,%r12
    11e6:	49 69 c4 ad 8b db 68 	imul   $0x68db8bad,%r12,%rax
    11ed:	48 89 c1             	mov    %rax,%rcx
    11f0:	48 c1 e9 3f          	shr    $0x3f,%rcx
    11f4:	48 c1 f8 2c          	sar    $0x2c,%rax
    11f8:	01 c8                	add    %ecx,%eax
    11fa:	69 c0 10 27 00 00    	imul   $0x2710,%eax,%eax
    1200:	41 29 c4             	sub    %eax,%r12d
  clock_gettime(CLOCK_MONOTONIC, &ts);
    1203:	bf 01 00 00 00       	mov    $0x1,%edi
    1208:	4c 89 fe             	mov    %r15,%rsi
    120b:	e8 20 fe ff ff       	call   1030 <clock_gettime@plt>
  return (int64_t)ts.tv_sec * 1000000000 + ts.tv_nsec;
    1210:	48 8b 6c 24 08       	mov    0x8(%rsp),%rbp
    1215:	4c 2b 74 24 10       	sub    0x10(%rsp),%r14
    int64_t s = get_time_ns();
    result += loops(40,r);
    121a:	bf 28 00 00 00       	mov    $0x28,%edi
    121f:	44 89 e6             	mov    %r12d,%esi
    1222:	e8 c9 00 00 00       	call   12f0 <loops>
  clock_gettime(CLOCK_MONOTONIC, &ts);
    1227:	bf 01 00 00 00       	mov    $0x1,%edi
    122c:	4c 89 fe             	mov    %r15,%rsi
    122f:	e8 fc fd ff ff       	call   1030 <clock_gettime@plt>
  return (int64_t)ts.tv_sec * 1000000000 + ts.tv_nsec;
    1234:	48 8b 44 24 08       	mov    0x8(%rsp),%rax
    1239:	48 29 e8             	sub    %rbp,%rax
    int64_t e = get_time_ns();
    total += e - s;
    123c:	4c 89 f1             	mov    %r14,%rcx
    123f:	48 03 4c 24 10       	add    0x10(%rsp),%rcx
    1244:	4c 69 f0 00 ca 9a 3b 	imul   $0x3b9aca00,%rax,%r14
    124b:	49 01 ce             	add    %rcx,%r14
  while (total < 3LL * 1000 * 1000 * 1000) {
    124e:	48 ff c3             	inc    %rbx
    1251:	4d 39 ee             	cmp    %r13,%r14
    1254:	0f 8c 76 ff ff ff    	jl     11d0 <main+0x20>
    ++count;
  }
  // fprintf(stderr, "result=%d\n", result);
  printf("%s,%s,", get_compiler_str(), get_arch_str());
    125a:	48 8d 3d a3 0d 00 00 	lea    0xda3(%rip),%rdi        # 2004 <_IO_stdin_used+0x4>
    1261:	48 8d 35 f9 0d 00 00 	lea    0xdf9(%rip),%rsi        # 2061 <get_compiler_str.compiler_str>
    1268:	48 8d 15 ff 0d 00 00 	lea    0xdff(%rip),%rdx        # 206e <get_arch_str.arch_str>
    126f:	31 c0                	xor    %eax,%eax
    1271:	e8 da fd ff ff       	call   1050 <printf@plt>
  fflush(stdout);
    1276:	48 8b 05 4b 2d 00 00 	mov    0x2d4b(%rip),%rax        # 3fc8 <stdout@GLIBC_2.2.5>
    127d:	48 8b 38             	mov    (%rax),%rdi
    1280:	e8 0b fe ff ff       	call   1090 <fflush@plt>
#if defined(__linux__)
  system("LC_ALL=C lscpu | grep 'Model name:' | sed 's/^.*: *//' | tr -d '\\n'");
    1285:	48 8d 3d 7f 0d 00 00 	lea    0xd7f(%rip),%rdi        # 200b <_IO_stdin_used+0xb>
    128c:	e8 af fd ff ff       	call   1040 <system@plt>
#elif defined(NO_DIV)
  static const char cs[] = {"nodiv"};
#else
  static const char cs[] = {"original"};
#endif
  printf(",%s,%d,%ld\n", cs, count, total/count/1000000);
    1291:	4c 89 f0             	mov    %r14,%rax
    1294:	48 09 d8             	or     %rbx,%rax
    1297:	48 c1 e8 20          	shr    $0x20,%rax
    129b:	74 0a                	je     12a7 <main+0xf7>
    129d:	4c 89 f0             	mov    %r14,%rax
    12a0:	31 d2                	xor    %edx,%edx
    12a2:	48 f7 f3             	div    %rbx
    12a5:	eb 07                	jmp    12ae <main+0xfe>
    12a7:	44 89 f0             	mov    %r14d,%eax
    12aa:	31 d2                	xor    %edx,%edx
    12ac:	f7 f3                	div    %ebx
    12ae:	48 b9 db 34 b6 d7 82 	movabs $0x431bde82d7b634db,%rcx
    12b5:	de 1b 43 
    12b8:	48 f7 e1             	mul    %rcx
    12bb:	48 89 d1             	mov    %rdx,%rcx
    12be:	48 c1 e9 12          	shr    $0x12,%rcx
    12c2:	48 8d 3d 86 0d 00 00 	lea    0xd86(%rip),%rdi        # 204f <_IO_stdin_used+0x4f>
    12c9:	48 8d 35 8b 0d 00 00 	lea    0xd8b(%rip),%rsi        # 205b <main.cs>
    12d0:	89 da                	mov    %ebx,%edx
    12d2:	31 c0                	xor    %eax,%eax
    12d4:	e8 77 fd ff ff       	call   1050 <printf@plt>
}
    12d9:	31 c0                	xor    %eax,%eax
    12db:	48 83 c4 18          	add    $0x18,%rsp
    12df:	5b                   	pop    %rbx
    12e0:	41 5c                	pop    %r12
    12e2:	41 5d                	pop    %r13
    12e4:	41 5e                	pop    %r14
    12e6:	41 5f                	pop    %r15
    12e8:	5d                   	pop    %rbp
    12e9:	c3                   	ret
    12ea:	66 0f 1f 44 00 00    	nopw   0x0(%rax,%rax,1)

00000000000012f0 <loops>:
#include <stdint.h>
#include "loops.h"

int loops(int u, int r) {
    12f0:	55                   	push   %rbp
    12f1:	41 56                	push   %r14
    12f3:	53                   	push   %rbx
    12f4:	48 81 ec 40 9c 00 00 	sub    $0x9c40,%rsp
    12fb:	89 f3                	mov    %esi,%ebx
    12fd:	89 fd                	mov    %edi,%ebp
    12ff:	48 89 e7             	mov    %rsp,%rdi
    1302:	45 31 f6             	xor    %r14d,%r14d
  int32_t a[10000] = {0};            // Array of 10k elements initialized to 0
    1305:	ba 40 9c 00 00       	mov    $0x9c40,%edx
    130a:	31 f6                	xor    %esi,%esi
    130c:	e8 4f fd ff ff       	call   1060 <memset@plt>
    1311:	eb 23                	jmp    1336 <loops+0x46>
    1313:	66 66 66 66 2e 0f 1f 	data16 data16 data16 cs nopw 0x0(%rax,%rax,1)
    131a:	84 00 00 00 00 00 
#else
    for (int j = 0; j < 10000; j++) {  // 10k inner loop iterations, per outer loop iteration
      a[i] = a[i] + j % u;  // Simple sum
#endif
    }
    a[i] += r;  // Add a random value to each element in array
    1320:	01 d8                	add    %ebx,%eax
    1322:	42 89 04 b4          	mov    %eax,(%rsp,%r14,4)
  for (int i = 0; i < 10000; i++) {  // 10k outer loop iterations
    1326:	49 ff c6             	inc    %r14
    1329:	49 81 fe 10 27 00 00 	cmp    $0x2710,%r14
    1330:	0f 84 c6 00 00 00    	je     13fc <loops+0x10c>
    1336:	42 8b 04 b4          	mov    (%rsp,%r14,4),%eax
    133a:	b9 10 27 00 00       	mov    $0x2710,%ecx
    133f:	31 ff                	xor    %edi,%edi
    1341:	eb 22                	jmp    1365 <loops+0x75>
    1343:	66 66 66 66 2e 0f 1f 	data16 data16 data16 cs nopw 0x0(%rax,%rax,1)
    134a:	84 00 00 00 00 00 
    1350:	01 f0                	add    %esi,%eax
    1352:	01 f8                	add    %edi,%eax
    1354:	44 01 c0             	add    %r8d,%eax
    1357:	44 01 c8             	add    %r9d,%eax
      a[i] = a[i] + k;  // Simple sum
    135a:	01 d0                	add    %edx,%eax
    for (int j = 0, k = 0; j < 10000; j++, k++) {  // 10k inner loop iterations, per outer loop iteration
    135c:	ff c2                	inc    %edx
    135e:	89 d7                	mov    %edx,%edi
    1360:	83 c1 fb             	add    $0xfffffffb,%ecx
    1363:	74 bb                	je     1320 <loops+0x30>
    1365:	31 d2                	xor    %edx,%edx
    1367:	be 00 00 00 00       	mov    $0x0,%esi
      k = (k == u ? 0 : k);
    136c:	39 ef                	cmp    %ebp,%edi
    136e:	75 40                	jne    13b0 <loops+0xc0>
    for (int j = 0, k = 0; j < 10000; j++, k++) {  // 10k inner loop iterations, per outer loop iteration
    1370:	44 8d 46 01          	lea    0x1(%rsi),%r8d
    1374:	bf 00 00 00 00       	mov    $0x0,%edi
      k = (k == u ? 0 : k);
    1379:	41 39 e8             	cmp    %ebp,%r8d
    137c:	75 42                	jne    13c0 <loops+0xd0>
    for (int j = 0, k = 0; j < 10000; j++, k++) {  // 10k inner loop iterations, per outer loop iteration
    137e:	44 8d 4f 01          	lea    0x1(%rdi),%r9d
    1382:	41 b8 00 00 00 00    	mov    $0x0,%r8d
      k = (k == u ? 0 : k);
    1388:	41 39 e9             	cmp    %ebp,%r9d
    138b:	75 45                	jne    13d2 <loops+0xe2>
    for (int j = 0, k = 0; j < 10000; j++, k++) {  // 10k inner loop iterations, per outer loop iteration
    138d:	45 8d 50 01          	lea    0x1(%r8),%r10d
    1391:	41 b9 00 00 00 00    	mov    $0x0,%r9d
      k = (k == u ? 0 : k);
    1397:	41 39 ea             	cmp    %ebp,%r10d
    139a:	75 48                	jne    13e4 <loops+0xf4>
    for (int j = 0, k = 0; j < 10000; j++, k++) {  // 10k inner loop iterations, per outer loop iteration
    139c:	45 8d 51 01          	lea    0x1(%r9),%r10d
      k = (k == u ? 0 : k);
    13a0:	41 39 ea             	cmp    %ebp,%r10d
    13a3:	74 ab                	je     1350 <loops+0x60>
    13a5:	eb 4d                	jmp    13f4 <loops+0x104>
    13a7:	66 0f 1f 84 00 00 00 	nopw   0x0(%rax,%rax,1)
    13ae:	00 00 
    13b0:	89 fe                	mov    %edi,%esi
    for (int j = 0, k = 0; j < 10000; j++, k++) {  // 10k inner loop iterations, per outer loop iteration
    13b2:	44 8d 46 01          	lea    0x1(%rsi),%r8d
    13b6:	bf 00 00 00 00       	mov    $0x0,%edi
      k = (k == u ? 0 : k);
    13bb:	41 39 e8             	cmp    %ebp,%r8d
    13be:	74 be                	je     137e <loops+0x8e>
    13c0:	44 89 c7             	mov    %r8d,%edi
    for (int j = 0, k = 0; j < 10000; j++, k++) {  // 10k inner loop iterations, per outer loop iteration
    13c3:	44 8d 4f 01          	lea    0x1(%rdi),%r9d
    13c7:	41 b8 00 00 00 00    	mov    $0x0,%r8d
      k = (k == u ? 0 : k);
    13cd:	41 39 e9             	cmp    %ebp,%r9d
    13d0:	74 bb                	je     138d <loops+0x9d>
    13d2:	45 89 c8             	mov    %r9d,%r8d
    for (int j = 0, k = 0; j < 10000; j++, k++) {  // 10k inner loop iterations, per outer loop iteration
    13d5:	45 8d 50 01          	lea    0x1(%r8),%r10d
    13d9:	41 b9 00 00 00 00    	mov    $0x0,%r9d
      k = (k == u ? 0 : k);
    13df:	41 39 ea             	cmp    %ebp,%r10d
    13e2:	74 b8                	je     139c <loops+0xac>
    13e4:	45 89 d1             	mov    %r10d,%r9d
    for (int j = 0, k = 0; j < 10000; j++, k++) {  // 10k inner loop iterations, per outer loop iteration
    13e7:	45 8d 51 01          	lea    0x1(%r9),%r10d
      k = (k == u ? 0 : k);
    13eb:	41 39 ea             	cmp    %ebp,%r10d
    13ee:	0f 84 5c ff ff ff    	je     1350 <loops+0x60>
    13f4:	44 89 d2             	mov    %r10d,%edx
    13f7:	e9 54 ff ff ff       	jmp    1350 <loops+0x60>
  }
  return a[r];
    13fc:	48 63 c3             	movslq %ebx,%rax
    13ff:	8b 04 84             	mov    (%rsp,%rax,4),%eax
    1402:	48 81 c4 40 9c 00 00 	add    $0x9c40,%rsp
    1409:	5b                   	pop    %rbx
    140a:	41 5e                	pop    %r14
    140c:	5d                   	pop    %rbp
    140d:	c3                   	ret

Disassembly of section .fini:

0000000000001410 <_fini>:
    1410:	f3 0f 1e fa          	endbr64
    1414:	48 83 ec 08          	sub    $0x8,%rsp
    1418:	48 83 c4 08          	add    $0x8,%rsp
    141c:	c3                   	ret
