
hoge_gcc_original:     file format elf64-x86-64


Disassembly of section .init:

0000000000001000 <_init>:
    1000:	    f3 0f 1e fa          	endbr64
    1004:	    48 83 ec 08          	sub    $0x8,%rsp
    1008:	    48 8b 05 d9 2f 00 00 	mov    0x2fd9(%rip),%rax        # 3fe8 <__gmon_start__@Base>
    100f:	    48 85 c0             	test   %rax,%rax
    1012:	/-- 74 02                	je     1016 <_init+0x16>
    1014:	|   ff d0                	call   *%rax
    1016:	\-> 48 83 c4 08          	add    $0x8,%rsp
    101a:	    c3                   	ret

Disassembly of section .plt:

0000000000001020 <.plt>:
    1020:	ff 35 5a 2f 00 00    	push   0x2f5a(%rip)        # 3f80 <_GLOBAL_OFFSET_TABLE_+0x8>
    1026:	ff 25 5c 2f 00 00    	jmp    *0x2f5c(%rip)        # 3f88 <_GLOBAL_OFFSET_TABLE_+0x10>
    102c:	0f 1f 40 00          	nopl   0x0(%rax)
    1030:	f3 0f 1e fa          	endbr64
    1034:	68 00 00 00 00       	push   $0x0
    1039:	e9 e2 ff ff ff       	jmp    1020 <_init+0x20>
    103e:	66 90                	xchg   %ax,%ax
    1040:	f3 0f 1e fa          	endbr64
    1044:	68 01 00 00 00       	push   $0x1
    1049:	e9 d2 ff ff ff       	jmp    1020 <_init+0x20>
    104e:	66 90                	xchg   %ax,%ax
    1050:	f3 0f 1e fa          	endbr64
    1054:	68 02 00 00 00       	push   $0x2
    1059:	e9 c2 ff ff ff       	jmp    1020 <_init+0x20>
    105e:	66 90                	xchg   %ax,%ax
    1060:	f3 0f 1e fa          	endbr64
    1064:	68 03 00 00 00       	push   $0x3
    1069:	e9 b2 ff ff ff       	jmp    1020 <_init+0x20>
    106e:	66 90                	xchg   %ax,%ax
    1070:	f3 0f 1e fa          	endbr64
    1074:	68 04 00 00 00       	push   $0x4
    1079:	e9 a2 ff ff ff       	jmp    1020 <_init+0x20>
    107e:	66 90                	xchg   %ax,%ax
    1080:	f3 0f 1e fa          	endbr64
    1084:	68 05 00 00 00       	push   $0x5
    1089:	e9 92 ff ff ff       	jmp    1020 <_init+0x20>
    108e:	66 90                	xchg   %ax,%ax
    1090:	f3 0f 1e fa          	endbr64
    1094:	68 06 00 00 00       	push   $0x6
    1099:	e9 82 ff ff ff       	jmp    1020 <_init+0x20>
    109e:	66 90                	xchg   %ax,%ax
    10a0:	f3 0f 1e fa          	endbr64
    10a4:	68 07 00 00 00       	push   $0x7
    10a9:	e9 72 ff ff ff       	jmp    1020 <_init+0x20>
    10ae:	66 90                	xchg   %ax,%ax
    10b0:	f3 0f 1e fa          	endbr64
    10b4:	68 08 00 00 00       	push   $0x8
    10b9:	e9 62 ff ff ff       	jmp    1020 <_init+0x20>
    10be:	66 90                	xchg   %ax,%ax

Disassembly of section .plt.got:

00000000000010c0 <__cxa_finalize@plt>:
    10c0:	f3 0f 1e fa          	endbr64
    10c4:	ff 25 2e 2f 00 00    	jmp    *0x2f2e(%rip)        # 3ff8 <__cxa_finalize@GLIBC_2.2.5>
    10ca:	66 0f 1f 44 00 00    	nopw   0x0(%rax,%rax,1)

Disassembly of section .plt.sec:

00000000000010d0 <clock_gettime@plt>:
    10d0:	f3 0f 1e fa          	endbr64
    10d4:	ff 25 b6 2e 00 00    	jmp    *0x2eb6(%rip)        # 3f90 <clock_gettime@GLIBC_2.17>
    10da:	66 0f 1f 44 00 00    	nopw   0x0(%rax,%rax,1)

00000000000010e0 <__stack_chk_fail@plt>:
    10e0:	f3 0f 1e fa          	endbr64
    10e4:	ff 25 ae 2e 00 00    	jmp    *0x2eae(%rip)        # 3f98 <__stack_chk_fail@GLIBC_2.4>
    10ea:	66 0f 1f 44 00 00    	nopw   0x0(%rax,%rax,1)

00000000000010f0 <system@plt>:
    10f0:	f3 0f 1e fa          	endbr64
    10f4:	ff 25 a6 2e 00 00    	jmp    *0x2ea6(%rip)        # 3fa0 <system@GLIBC_2.2.5>
    10fa:	66 0f 1f 44 00 00    	nopw   0x0(%rax,%rax,1)

0000000000001100 <memset@plt>:
    1100:	f3 0f 1e fa          	endbr64
    1104:	ff 25 9e 2e 00 00    	jmp    *0x2e9e(%rip)        # 3fa8 <memset@GLIBC_2.2.5>
    110a:	66 0f 1f 44 00 00    	nopw   0x0(%rax,%rax,1)

0000000000001110 <srand@plt>:
    1110:	f3 0f 1e fa          	endbr64
    1114:	ff 25 96 2e 00 00    	jmp    *0x2e96(%rip)        # 3fb0 <srand@GLIBC_2.2.5>
    111a:	66 0f 1f 44 00 00    	nopw   0x0(%rax,%rax,1)

0000000000001120 <time@plt>:
    1120:	f3 0f 1e fa          	endbr64
    1124:	ff 25 8e 2e 00 00    	jmp    *0x2e8e(%rip)        # 3fb8 <time@GLIBC_2.2.5>
    112a:	66 0f 1f 44 00 00    	nopw   0x0(%rax,%rax,1)

0000000000001130 <fflush@plt>:
    1130:	f3 0f 1e fa          	endbr64
    1134:	ff 25 86 2e 00 00    	jmp    *0x2e86(%rip)        # 3fc0 <fflush@GLIBC_2.2.5>
    113a:	66 0f 1f 44 00 00    	nopw   0x0(%rax,%rax,1)

0000000000001140 <__printf_chk@plt>:
    1140:	f3 0f 1e fa          	endbr64
    1144:	ff 25 7e 2e 00 00    	jmp    *0x2e7e(%rip)        # 3fc8 <__printf_chk@GLIBC_2.3.4>
    114a:	66 0f 1f 44 00 00    	nopw   0x0(%rax,%rax,1)

0000000000001150 <rand@plt>:
    1150:	f3 0f 1e fa          	endbr64
    1154:	ff 25 76 2e 00 00    	jmp    *0x2e76(%rip)        # 3fd0 <rand@GLIBC_2.2.5>
    115a:	66 0f 1f 44 00 00    	nopw   0x0(%rax,%rax,1)

Disassembly of section .text:

0000000000001160 <main>:
  static const char arch_str[] = {"unknown");
#endif
  return arch_str;
}

int main() {
    1160:	    f3 0f 1e fa          	endbr64
    1164:	    41 56                	push   %r14
  int r = 0;
  int count = 0;
  int64_t total = 0;
    1166:	    45 31 f6             	xor    %r14d,%r14d
int main() {
    1169:	    41 55                	push   %r13
    116b:	    41 54                	push   %r12
  while (total < 3LL * 1000 * 1000 * 1000) {
    116d:	    41 bc ff 5d d0 b2    	mov    $0xb2d05dff,%r12d
int main() {
    1173:	    55                   	push   %rbp
    1174:	    53                   	push   %rbx
  int count = 0;
    1175:	    31 db                	xor    %ebx,%ebx
int main() {
    1177:	    48 83 ec 20          	sub    $0x20,%rsp
    117b:	    64 48 8b 04 25 28 00 	mov    %fs:0x28,%rax
    1182:	    00 00 
    1184:	    48 89 44 24 18       	mov    %rax,0x18(%rsp)
    1189:	    31 c0                	xor    %eax,%eax
  while (total < 3LL * 1000 * 1000 * 1000) {
    118b:	    48 89 e5             	mov    %rsp,%rbp
    118e:	    66 90                	xchg   %ax,%ax
  clock_gettime(CLOCK_MONOTONIC, &ts);
    1190:	/-> 48 89 ee             	mov    %rbp,%rsi
    1193:	|   bf 01 00 00 00       	mov    $0x1,%edi
    int64_t s = get_time_ns();
    r += loops(40);
    int64_t e = get_time_ns();
    total += e - s;
    ++count;
    1198:	|   83 c3 01             	add    $0x1,%ebx
  clock_gettime(CLOCK_MONOTONIC, &ts);
    119b:	|   e8 30 ff ff ff       	call   10d0 <clock_gettime@plt>
    r += loops(40);
    11a0:	|   bf 28 00 00 00       	mov    $0x28,%edi
  return (int64_t)ts.tv_sec * 1000000000 + ts.tv_nsec;
    11a5:	|   4c 69 2c 24 00 ca 9a 	imul   $0x3b9aca00,(%rsp),%r13
    11ac:	|   3b 
    11ad:	|   4c 03 6c 24 08       	add    0x8(%rsp),%r13
    r += loops(40);
    11b2:	|   e8 b9 01 00 00       	call   1370 <loops>
  clock_gettime(CLOCK_MONOTONIC, &ts);
    11b7:	|   48 89 ee             	mov    %rbp,%rsi
    11ba:	|   bf 01 00 00 00       	mov    $0x1,%edi
    11bf:	|   e8 0c ff ff ff       	call   10d0 <clock_gettime@plt>
  return (int64_t)ts.tv_sec * 1000000000 + ts.tv_nsec;
    11c4:	|   48 69 0c 24 00 ca 9a 	imul   $0x3b9aca00,(%rsp),%rcx
    11cb:	|   3b 
    11cc:	|   48 03 4c 24 08       	add    0x8(%rsp),%rcx
    total += e - s;
    11d1:	|   4c 29 e9             	sub    %r13,%rcx
    11d4:	|   49 01 ce             	add    %rcx,%r14
  while (total < 3LL * 1000 * 1000 * 1000) {
    11d7:	|   4d 39 e6             	cmp    %r12,%r14
    11da:	\-- 7e b4                	jle    1190 <main+0x30>
}

__fortify_function int
printf (const char *__restrict __fmt, ...)
{
  return __printf_chk (__USE_FORTIFY_LEVEL - 1, __fmt, __va_arg_pack ());
    11dc:	    48 8d 0d 8e 0e 00 00 	lea    0xe8e(%rip),%rcx        # 2071 <arch_str.1>
    11e3:	    48 8d 15 7e 0e 00 00 	lea    0xe7e(%rip),%rdx        # 2068 <compiler_str.0>
    11ea:	    bf 02 00 00 00       	mov    $0x2,%edi
    11ef:	    31 c0                	xor    %eax,%eax
    11f1:	    48 8d 35 0c 0e 00 00 	lea    0xe0c(%rip),%rsi        # 2004 <_IO_stdin_used+0x4>
    11f8:	    e8 43 ff ff ff       	call   1140 <__printf_chk@plt>
  }
  printf("%s,%s,", get_compiler_str(), get_arch_str());
  fflush(stdout);
    11fd:	    48 8b 3d 0c 2e 00 00 	mov    0x2e0c(%rip),%rdi        # 4010 <stdout@GLIBC_2.2.5>
    1204:	    e8 27 ff ff ff       	call   1130 <fflush@plt>
#if defined(__linux__)
  system("lscpu --extended=MODELNAME | awk -F: 'NR==2 {print $1; exit}' | tr -d '\\n'");
    1209:	    48 8d 3d 08 0e 00 00 	lea    0xe08(%rip),%rdi        # 2018 <_IO_stdin_used+0x18>
    1210:	    e8 db fe ff ff       	call   10f0 <system@plt>
#if defined(FASTER_CODE)
  static const char is_faster_str[] = {"faster"};
#else
  static const char is_faster_str[] = {"original"};
#endif
  printf(",%s,%d,%ld\n", is_faster_str, count, total/count/1000000);
    1215:	    4c 89 f0             	mov    %r14,%rax
    1218:	    48 63 cb             	movslq %ebx,%rcx
    121b:	    bf 02 00 00 00       	mov    $0x2,%edi
    1220:	    48 99                	cqto
    1222:	    48 8d 35 e2 0d 00 00 	lea    0xde2(%rip),%rsi        # 200b <_IO_stdin_used+0xb>
    1229:	    48 f7 f9             	idiv   %rcx
    122c:	    48 ba db 34 b6 d7 82 	movabs $0x431bde82d7b634db,%rdx
    1233:	    de 1b 43 
    1236:	    89 d9                	mov    %ebx,%ecx
    1238:	    48 f7 e2             	mul    %rdx
    123b:	    31 c0                	xor    %eax,%eax
    123d:	    48 c1 ea 12          	shr    $0x12,%rdx
    1241:	    49 89 d0             	mov    %rdx,%r8
    1244:	    48 8d 15 2d 0e 00 00 	lea    0xe2d(%rip),%rdx        # 2078 <is_faster_str.2>
    124b:	    e8 f0 fe ff ff       	call   1140 <__printf_chk@plt>
}
    1250:	    48 8b 44 24 18       	mov    0x18(%rsp),%rax
    1255:	    64 48 2b 04 25 28 00 	sub    %fs:0x28,%rax
    125c:	    00 00 
    125e:	/-- 75 0f                	jne    126f <main+0x10f>
    1260:	|   48 83 c4 20          	add    $0x20,%rsp
    1264:	|   31 c0                	xor    %eax,%eax
    1266:	|   5b                   	pop    %rbx
    1267:	|   5d                   	pop    %rbp
    1268:	|   41 5c                	pop    %r12
    126a:	|   41 5d                	pop    %r13
    126c:	|   41 5e                	pop    %r14
    126e:	|   c3                   	ret
    126f:	\-> e8 6c fe ff ff       	call   10e0 <__stack_chk_fail@plt>
    1274:	    66 2e 0f 1f 84 00 00 	cs nopw 0x0(%rax,%rax,1)
    127b:	    00 00 00 
    127e:	    66 90                	xchg   %ax,%ax

0000000000001280 <_start>:
    1280:	f3 0f 1e fa          	endbr64
    1284:	31 ed                	xor    %ebp,%ebp
    1286:	49 89 d1             	mov    %rdx,%r9
    1289:	5e                   	pop    %rsi
    128a:	48 89 e2             	mov    %rsp,%rdx
    128d:	48 83 e4 f0          	and    $0xfffffffffffffff0,%rsp
    1291:	50                   	push   %rax
    1292:	54                   	push   %rsp
    1293:	45 31 c0             	xor    %r8d,%r8d
    1296:	31 c9                	xor    %ecx,%ecx
    1298:	48 8d 3d c1 fe ff ff 	lea    -0x13f(%rip),%rdi        # 1160 <main>
    129f:	ff 15 33 2d 00 00    	call   *0x2d33(%rip)        # 3fd8 <__libc_start_main@GLIBC_2.34>
    12a5:	f4                   	hlt
    12a6:	66 2e 0f 1f 84 00 00 	cs nopw 0x0(%rax,%rax,1)
    12ad:	00 00 00 

00000000000012b0 <deregister_tm_clones>:
    12b0:	    48 8d 3d 59 2d 00 00 	lea    0x2d59(%rip),%rdi        # 4010 <stdout@GLIBC_2.2.5>
    12b7:	    48 8d 05 52 2d 00 00 	lea    0x2d52(%rip),%rax        # 4010 <stdout@GLIBC_2.2.5>
    12be:	    48 39 f8             	cmp    %rdi,%rax
    12c1:	/-- 74 15                	je     12d8 <deregister_tm_clones+0x28>
    12c3:	|   48 8b 05 16 2d 00 00 	mov    0x2d16(%rip),%rax        # 3fe0 <_ITM_deregisterTMCloneTable@Base>
    12ca:	|   48 85 c0             	test   %rax,%rax
    12cd:	+-- 74 09                	je     12d8 <deregister_tm_clones+0x28>
    12cf:	|   ff e0                	jmp    *%rax
    12d1:	|   0f 1f 80 00 00 00 00 	nopl   0x0(%rax)
    12d8:	\-> c3                   	ret
    12d9:	    0f 1f 80 00 00 00 00 	nopl   0x0(%rax)

00000000000012e0 <register_tm_clones>:
    12e0:	    48 8d 3d 29 2d 00 00 	lea    0x2d29(%rip),%rdi        # 4010 <stdout@GLIBC_2.2.5>
    12e7:	    48 8d 35 22 2d 00 00 	lea    0x2d22(%rip),%rsi        # 4010 <stdout@GLIBC_2.2.5>
    12ee:	    48 29 fe             	sub    %rdi,%rsi
    12f1:	    48 89 f0             	mov    %rsi,%rax
    12f4:	    48 c1 ee 3f          	shr    $0x3f,%rsi
    12f8:	    48 c1 f8 03          	sar    $0x3,%rax
    12fc:	    48 01 c6             	add    %rax,%rsi
    12ff:	    48 d1 fe             	sar    $1,%rsi
    1302:	/-- 74 14                	je     1318 <register_tm_clones+0x38>
    1304:	|   48 8b 05 e5 2c 00 00 	mov    0x2ce5(%rip),%rax        # 3ff0 <_ITM_registerTMCloneTable@Base>
    130b:	|   48 85 c0             	test   %rax,%rax
    130e:	+-- 74 08                	je     1318 <register_tm_clones+0x38>
    1310:	|   ff e0                	jmp    *%rax
    1312:	|   66 0f 1f 44 00 00    	nopw   0x0(%rax,%rax,1)
    1318:	\-> c3                   	ret
    1319:	    0f 1f 80 00 00 00 00 	nopl   0x0(%rax)

0000000000001320 <__do_global_dtors_aux>:
    1320:	       f3 0f 1e fa          	endbr64
    1324:	       80 3d ed 2c 00 00 00 	cmpb   $0x0,0x2ced(%rip)        # 4018 <completed.0>
    132b:	/----- 75 2b                	jne    1358 <__do_global_dtors_aux+0x38>
    132d:	|      55                   	push   %rbp
    132e:	|      48 83 3d c2 2c 00 00 	cmpq   $0x0,0x2cc2(%rip)        # 3ff8 <__cxa_finalize@GLIBC_2.2.5>
    1335:	|      00 
    1336:	|      48 89 e5             	mov    %rsp,%rbp
    1339:	|  /-- 74 0c                	je     1347 <__do_global_dtors_aux+0x27>
    133b:	|  |   48 8b 3d c6 2c 00 00 	mov    0x2cc6(%rip),%rdi        # 4008 <__dso_handle>
    1342:	|  |   e8 79 fd ff ff       	call   10c0 <__cxa_finalize@plt>
    1347:	|  \-> e8 64 ff ff ff       	call   12b0 <deregister_tm_clones>
    134c:	|      c6 05 c5 2c 00 00 01 	movb   $0x1,0x2cc5(%rip)        # 4018 <completed.0>
    1353:	|      5d                   	pop    %rbp
    1354:	|      c3                   	ret
    1355:	|      0f 1f 00             	nopl   (%rax)
    1358:	\----> c3                   	ret
    1359:	       0f 1f 80 00 00 00 00 	nopl   0x0(%rax)

0000000000001360 <frame_dummy>:
    1360:	f3 0f 1e fa          	endbr64
    1364:	e9 77 ff ff ff       	jmp    12e0 <register_tm_clones>
    1369:	0f 1f 80 00 00 00 00 	nopl   0x0(%rax)

0000000000001370 <loops>:
int loops(int u) {
    1370:	       f3 0f 1e fa          	endbr64
    1374:	       55                   	push   %rbp
    1375:	       53                   	push   %rbx
    1376:	       4c 8d 9c 24 00 70 ff 	lea    -0x9000(%rsp),%r11
    137d:	       ff 
    137e:	   /-> 48 81 ec 00 10 00 00 	sub    $0x1000,%rsp
    1385:	   |   48 83 0c 24 00       	orq    $0x0,(%rsp)
    138a:	   |   4c 39 dc             	cmp    %r11,%rsp
    138d:	   \-- 75 ef                	jne    137e <loops+0xe>
    138f:	       48 81 ec 58 0c 00 00 	sub    $0xc58,%rsp
    1396:	       64 48 8b 04 25 28 00 	mov    %fs:0x28,%rax
    139d:	       00 00 
    139f:	       48 89 84 24 48 9c 00 	mov    %rax,0x9c48(%rsp)
    13a6:	       00 
    13a7:	       31 c0                	xor    %eax,%eax
    13a9:	       89 fb                	mov    %edi,%ebx
  srand(time(NULL));                 // FIX random seed
    13ab:	       31 ff                	xor    %edi,%edi
    13ad:	       e8 6e fd ff ff       	call   1120 <time@plt>
    13b2:	       89 c7                	mov    %eax,%edi
    13b4:	       e8 57 fd ff ff       	call   1110 <srand@plt>
  int r = rand() % 10000;            // Get a random integer 0 <= r < 10k
    13b9:	       e8 92 fd ff ff       	call   1150 <rand@plt>
  int32_t a[10000] = {0};            // Array of 10k elements initialized to 0
    13be:	       48 89 e7             	mov    %rsp,%rdi
    13c1:	       31 f6                	xor    %esi,%esi
  int r = rand() % 10000;            // Get a random integer 0 <= r < 10k
    13c3:	       48 63 e8             	movslq %eax,%rbp
    13c6:	       99                   	cltd
    13c7:	       48 69 ed ad 8b db 68 	imul   $0x68db8bad,%rbp,%rbp
    13ce:	       48 c1 fd 2c          	sar    $0x2c,%rbp
    13d2:	       29 d5                	sub    %edx,%ebp
    13d4:	       69 d5 10 27 00 00    	imul   $0x2710,%ebp,%edx
    13da:	       29 d0                	sub    %edx,%eax
  int32_t a[10000] = {0};            // Array of 10k elements initialized to 0
    13dc:	       ba 40 9c 00 00       	mov    $0x9c40,%edx
  int r = rand() % 10000;            // Get a random integer 0 <= r < 10k
    13e1:	       48 63 e8             	movslq %eax,%rbp
  int32_t a[10000] = {0};            // Array of 10k elements initialized to 0
    13e4:	       e8 17 fd ff ff       	call   1100 <memset@plt>
    13e9:	       4c 8d 84 24 40 9c 00 	lea    0x9c40(%rsp),%r8
    13f0:	       00 
    13f1:	       48 89 c7             	mov    %rax,%rdi
  for (int i = 0; i < 10000; i++) {  // 10k outer loop iterations
    13f4:	       0f 1f 40 00          	nopl   0x0(%rax)
    for (int j = 0; j < 10000; j++) {  // 10k inner loop iterations, per outer loop iteration
    13f8:	/----> 8b 37                	mov    (%rdi),%esi
    13fa:	|      31 c9                	xor    %ecx,%ecx
    13fc:	|      0f 1f 40 00          	nopl   0x0(%rax)
      a[i] = a[i] + j % u;  // Simple sum
    1400:	|  /-> 89 c8                	mov    %ecx,%eax
    for (int j = 0; j < 10000; j++) {  // 10k inner loop iterations, per outer loop iteration
    1402:	|  |   83 c1 01             	add    $0x1,%ecx
      a[i] = a[i] + j % u;  // Simple sum
    1405:	|  |   99                   	cltd
    1406:	|  |   f7 fb                	idiv   %ebx
    1408:	|  |   01 d6                	add    %edx,%esi
    for (int j = 0; j < 10000; j++) {  // 10k inner loop iterations, per outer loop iteration
    140a:	|  |   81 f9 10 27 00 00    	cmp    $0x2710,%ecx
    1410:	|  \-- 75 ee                	jne    1400 <loops+0x90>
    a[i] += r;  // Add a random value to each element in array
    1412:	|      01 ee                	add    %ebp,%esi
  for (int i = 0; i < 10000; i++) {  // 10k outer loop iterations
    1414:	|      48 83 c7 04          	add    $0x4,%rdi
    a[i] += r;  // Add a random value to each element in array
    1418:	|      89 77 fc             	mov    %esi,-0x4(%rdi)
  for (int i = 0; i < 10000; i++) {  // 10k outer loop iterations
    141b:	|      49 39 f8             	cmp    %rdi,%r8
    141e:	\----- 75 d8                	jne    13f8 <loops+0x88>
  return a[r];
    1420:	       8b 04 ac             	mov    (%rsp,%rbp,4),%eax
}
    1423:	       48 8b 94 24 48 9c 00 	mov    0x9c48(%rsp),%rdx
    142a:	       00 
    142b:	       64 48 2b 14 25 28 00 	sub    %fs:0x28,%rdx
    1432:	       00 00 
    1434:	   /-- 75 0a                	jne    1440 <loops+0xd0>
    1436:	   |   48 81 c4 58 9c 00 00 	add    $0x9c58,%rsp
    143d:	   |   5b                   	pop    %rbx
    143e:	   |   5d                   	pop    %rbp
    143f:	   |   c3                   	ret
    1440:	   \-> e8 9b fc ff ff       	call   10e0 <__stack_chk_fail@plt>

Disassembly of section .fini:

0000000000001448 <_fini>:
    1448:	f3 0f 1e fa          	endbr64
    144c:	48 83 ec 08          	sub    $0x8,%rsp
    1450:	48 83 c4 08          	add    $0x8,%rsp
    1454:	c3                   	ret
