
hoge_gcc_nodiv:     file format elf64-x86-64


Disassembly of section .init:

0000000000001000 <_init>:
    1000:	f3 0f 1e fa          	endbr64
    1004:	48 83 ec 08          	sub    $0x8,%rsp
    1008:	48 8b 05 d9 2f 00 00 	mov    0x2fd9(%rip),%rax        # 3fe8 <__gmon_start__@Base>
    100f:	48 85 c0             	test   %rax,%rax
    1012:	74 02                	je     1016 <_init+0x16>
    1014:	ff d0                	call   *%rax
    1016:	48 83 c4 08          	add    $0x8,%rsp
    101a:	c3                   	ret

Disassembly of section .plt:

0000000000001020 <.plt>:
    1020:	ff 35 5a 2f 00 00    	push   0x2f5a(%rip)        # 3f80 <_GLOBAL_OFFSET_TABLE_+0x8>
    1026:	ff 25 5c 2f 00 00    	jmp    *0x2f5c(%rip)        # 3f88 <_GLOBAL_OFFSET_TABLE_+0x10>
    102c:	0f 1f 40 00          	nopl   0x0(%rax)
    1030:	f3 0f 1e fa          	endbr64
    1034:	68 00 00 00 00       	push   $0x0
    1039:	e9 e2 ff ff ff       	jmp    1020 <_init+0x20>
    103e:	66 90                	xchg   %ax,%ax
    1040:	f3 0f 1e fa          	endbr64
    1044:	68 01 00 00 00       	push   $0x1
    1049:	e9 d2 ff ff ff       	jmp    1020 <_init+0x20>
    104e:	66 90                	xchg   %ax,%ax
    1050:	f3 0f 1e fa          	endbr64
    1054:	68 02 00 00 00       	push   $0x2
    1059:	e9 c2 ff ff ff       	jmp    1020 <_init+0x20>
    105e:	66 90                	xchg   %ax,%ax
    1060:	f3 0f 1e fa          	endbr64
    1064:	68 03 00 00 00       	push   $0x3
    1069:	e9 b2 ff ff ff       	jmp    1020 <_init+0x20>
    106e:	66 90                	xchg   %ax,%ax
    1070:	f3 0f 1e fa          	endbr64
    1074:	68 04 00 00 00       	push   $0x4
    1079:	e9 a2 ff ff ff       	jmp    1020 <_init+0x20>
    107e:	66 90                	xchg   %ax,%ax
    1080:	f3 0f 1e fa          	endbr64
    1084:	68 05 00 00 00       	push   $0x5
    1089:	e9 92 ff ff ff       	jmp    1020 <_init+0x20>
    108e:	66 90                	xchg   %ax,%ax
    1090:	f3 0f 1e fa          	endbr64
    1094:	68 06 00 00 00       	push   $0x6
    1099:	e9 82 ff ff ff       	jmp    1020 <_init+0x20>
    109e:	66 90                	xchg   %ax,%ax
    10a0:	f3 0f 1e fa          	endbr64
    10a4:	68 07 00 00 00       	push   $0x7
    10a9:	e9 72 ff ff ff       	jmp    1020 <_init+0x20>
    10ae:	66 90                	xchg   %ax,%ax
    10b0:	f3 0f 1e fa          	endbr64
    10b4:	68 08 00 00 00       	push   $0x8
    10b9:	e9 62 ff ff ff       	jmp    1020 <_init+0x20>
    10be:	66 90                	xchg   %ax,%ax

Disassembly of section .plt.got:

00000000000010c0 <__cxa_finalize@plt>:
    10c0:	f3 0f 1e fa          	endbr64
    10c4:	ff 25 2e 2f 00 00    	jmp    *0x2f2e(%rip)        # 3ff8 <__cxa_finalize@GLIBC_2.2.5>
    10ca:	66 0f 1f 44 00 00    	nopw   0x0(%rax,%rax,1)

Disassembly of section .plt.sec:

00000000000010d0 <clock_gettime@plt>:
    10d0:	f3 0f 1e fa          	endbr64
    10d4:	ff 25 b6 2e 00 00    	jmp    *0x2eb6(%rip)        # 3f90 <clock_gettime@GLIBC_2.17>
    10da:	66 0f 1f 44 00 00    	nopw   0x0(%rax,%rax,1)

00000000000010e0 <__stack_chk_fail@plt>:
    10e0:	f3 0f 1e fa          	endbr64
    10e4:	ff 25 ae 2e 00 00    	jmp    *0x2eae(%rip)        # 3f98 <__stack_chk_fail@GLIBC_2.4>
    10ea:	66 0f 1f 44 00 00    	nopw   0x0(%rax,%rax,1)

00000000000010f0 <system@plt>:
    10f0:	f3 0f 1e fa          	endbr64
    10f4:	ff 25 a6 2e 00 00    	jmp    *0x2ea6(%rip)        # 3fa0 <system@GLIBC_2.2.5>
    10fa:	66 0f 1f 44 00 00    	nopw   0x0(%rax,%rax,1)

0000000000001100 <memset@plt>:
    1100:	f3 0f 1e fa          	endbr64
    1104:	ff 25 9e 2e 00 00    	jmp    *0x2e9e(%rip)        # 3fa8 <memset@GLIBC_2.2.5>
    110a:	66 0f 1f 44 00 00    	nopw   0x0(%rax,%rax,1)

0000000000001110 <srand@plt>:
    1110:	f3 0f 1e fa          	endbr64
    1114:	ff 25 96 2e 00 00    	jmp    *0x2e96(%rip)        # 3fb0 <srand@GLIBC_2.2.5>
    111a:	66 0f 1f 44 00 00    	nopw   0x0(%rax,%rax,1)

0000000000001120 <time@plt>:
    1120:	f3 0f 1e fa          	endbr64
    1124:	ff 25 8e 2e 00 00    	jmp    *0x2e8e(%rip)        # 3fb8 <time@GLIBC_2.2.5>
    112a:	66 0f 1f 44 00 00    	nopw   0x0(%rax,%rax,1)

0000000000001130 <fflush@plt>:
    1130:	f3 0f 1e fa          	endbr64
    1134:	ff 25 86 2e 00 00    	jmp    *0x2e86(%rip)        # 3fc0 <fflush@GLIBC_2.2.5>
    113a:	66 0f 1f 44 00 00    	nopw   0x0(%rax,%rax,1)

0000000000001140 <__printf_chk@plt>:
    1140:	f3 0f 1e fa          	endbr64
    1144:	ff 25 7e 2e 00 00    	jmp    *0x2e7e(%rip)        # 3fc8 <__printf_chk@GLIBC_2.3.4>
    114a:	66 0f 1f 44 00 00    	nopw   0x0(%rax,%rax,1)

0000000000001150 <rand@plt>:
    1150:	f3 0f 1e fa          	endbr64
    1154:	ff 25 76 2e 00 00    	jmp    *0x2e76(%rip)        # 3fd0 <rand@GLIBC_2.2.5>
    115a:	66 0f 1f 44 00 00    	nopw   0x0(%rax,%rax,1)

Disassembly of section .text:

0000000000001160 <main>:
  static const char arch_str[] = {"unknown");
#endif
  return arch_str;
}

int main(void) {
    1160:	f3 0f 1e fa          	endbr64
    1164:	41 57                	push   %r15
    1166:	41 56                	push   %r14
  int result = 0;
  int count = 0;
  int64_t total = 0;
    1168:	45 31 f6             	xor    %r14d,%r14d
int main(void) {
    116b:	41 55                	push   %r13
    116d:	41 54                	push   %r12
  while (total < 3LL * 1000 * 1000 * 1000) {
    116f:	41 bc ff 5d d0 b2    	mov    $0xb2d05dff,%r12d
int main(void) {
    1175:	55                   	push   %rbp
    1176:	53                   	push   %rbx
  int count = 0;
    1177:	31 db                	xor    %ebx,%ebx
int main(void) {
    1179:	48 83 ec 28          	sub    $0x28,%rsp
    117d:	64 48 8b 04 25 28 00 	mov    %fs:0x28,%rax
    1184:	00 00 
    1186:	48 89 44 24 18       	mov    %rax,0x18(%rsp)
    118b:	31 c0                	xor    %eax,%eax
  while (total < 3LL * 1000 * 1000 * 1000) {
    118d:	48 89 e5             	mov    %rsp,%rbp
    srand(time(NULL));                 // FIX random seed
    1190:	31 ff                	xor    %edi,%edi
    int r = rand() % 10000;            // Get a random integer 0 <= r < 10k
    int64_t s = get_time_ns();
    result += loops(40,r);
    int64_t e = get_time_ns();
    total += e - s;
    ++count;
    1192:	83 c3 01             	add    $0x1,%ebx
    srand(time(NULL));                 // FIX random seed
    1195:	e8 86 ff ff ff       	call   1120 <time@plt>
    119a:	89 c7                	mov    %eax,%edi
    119c:	e8 6f ff ff ff       	call   1110 <srand@plt>
    int r = rand() % 10000;            // Get a random integer 0 <= r < 10k
    11a1:	e8 aa ff ff ff       	call   1150 <rand@plt>
  clock_gettime(CLOCK_MONOTONIC, &ts);
    11a6:	48 89 ee             	mov    %rbp,%rsi
    11a9:	bf 01 00 00 00       	mov    $0x1,%edi
    int r = rand() % 10000;            // Get a random integer 0 <= r < 10k
    11ae:	41 89 c5             	mov    %eax,%r13d
  clock_gettime(CLOCK_MONOTONIC, &ts);
    11b1:	e8 1a ff ff ff       	call   10d0 <clock_gettime@plt>
    int r = rand() % 10000;            // Get a random integer 0 <= r < 10k
    11b6:	49 63 cd             	movslq %r13d,%rcx
    11b9:	44 89 e8             	mov    %r13d,%eax
    11bc:	44 89 ee             	mov    %r13d,%esi
    11bf:	48 69 c9 ad 8b db 68 	imul   $0x68db8bad,%rcx,%rcx
    11c6:	c1 f8 1f             	sar    $0x1f,%eax
    result += loops(40,r);
    11c9:	bf 28 00 00 00       	mov    $0x28,%edi
  return (int64_t)ts.tv_sec * 1000000000 + ts.tv_nsec;
    11ce:	4c 69 3c 24 00 ca 9a 	imul   $0x3b9aca00,(%rsp),%r15
    11d5:	3b 
    11d6:	4c 03 7c 24 08       	add    0x8(%rsp),%r15
    int r = rand() % 10000;            // Get a random integer 0 <= r < 10k
    11db:	48 c1 f9 2c          	sar    $0x2c,%rcx
    11df:	29 c1                	sub    %eax,%ecx
    11e1:	69 c9 10 27 00 00    	imul   $0x2710,%ecx,%ecx
    11e7:	29 ce                	sub    %ecx,%esi
    result += loops(40,r);
    11e9:	e8 c2 01 00 00       	call   13b0 <loops>
  clock_gettime(CLOCK_MONOTONIC, &ts);
    11ee:	48 89 ee             	mov    %rbp,%rsi
    11f1:	bf 01 00 00 00       	mov    $0x1,%edi
    11f6:	e8 d5 fe ff ff       	call   10d0 <clock_gettime@plt>
  return (int64_t)ts.tv_sec * 1000000000 + ts.tv_nsec;
    11fb:	48 69 04 24 00 ca 9a 	imul   $0x3b9aca00,(%rsp),%rax
    1202:	3b 
    1203:	48 03 44 24 08       	add    0x8(%rsp),%rax
    total += e - s;
    1208:	4c 29 f8             	sub    %r15,%rax
    120b:	49 01 c6             	add    %rax,%r14
  while (total < 3LL * 1000 * 1000 * 1000) {
    120e:	4d 39 e6             	cmp    %r12,%r14
    1211:	0f 8e 79 ff ff ff    	jle    1190 <main+0x30>
}

__fortify_function int
printf (const char *__restrict __fmt, ...)
{
  return __printf_chk (__USE_FORTIFY_LEVEL - 1, __fmt, __va_arg_pack ());
    1217:	48 8d 0d 4b 0e 00 00 	lea    0xe4b(%rip),%rcx        # 2069 <arch_str.1>
    121e:	48 8d 15 3b 0e 00 00 	lea    0xe3b(%rip),%rdx        # 2060 <compiler_str.0>
    1225:	bf 02 00 00 00       	mov    $0x2,%edi
    122a:	31 c0                	xor    %eax,%eax
    122c:	48 8d 35 d1 0d 00 00 	lea    0xdd1(%rip),%rsi        # 2004 <_IO_stdin_used+0x4>
    1233:	e8 08 ff ff ff       	call   1140 <__printf_chk@plt>
  }
  // fprintf(stderr, "result=%d\n", result);
  printf("%s,%s,", get_compiler_str(), get_arch_str());
  fflush(stdout);
    1238:	48 8b 3d d1 2d 00 00 	mov    0x2dd1(%rip),%rdi        # 4010 <stdout@GLIBC_2.2.5>
    123f:	e8 ec fe ff ff       	call   1130 <fflush@plt>
#if defined(__linux__)
  system("LC_ALL=C lscpu | grep 'Model name:' | sed 's/^.*: *//' | tr -d '\\n'");
    1244:	48 8d 3d cd 0d 00 00 	lea    0xdcd(%rip),%rdi        # 2018 <_IO_stdin_used+0x18>
    124b:	e8 a0 fe ff ff       	call   10f0 <system@plt>
#elif defined(NO_DIV)
  static const char cs[] = {"nodiv"};
#else
  static const char cs[] = {"original"};
#endif
  printf(",%s,%d,%ld\n", cs, count, total/count/1000000);
    1250:	4c 89 f0             	mov    %r14,%rax
    1253:	48 63 cb             	movslq %ebx,%rcx
    1256:	bf 02 00 00 00       	mov    $0x2,%edi
    125b:	48 99                	cqto
    125d:	48 8d 35 a7 0d 00 00 	lea    0xda7(%rip),%rsi        # 200b <_IO_stdin_used+0xb>
    1264:	48 f7 f9             	idiv   %rcx
    1267:	48 ba db 34 b6 d7 82 	movabs $0x431bde82d7b634db,%rdx
    126e:	de 1b 43 
    1271:	89 d9                	mov    %ebx,%ecx
    1273:	48 f7 e2             	mul    %rdx
    1276:	31 c0                	xor    %eax,%eax
    1278:	48 c1 ea 12          	shr    $0x12,%rdx
    127c:	49 89 d0             	mov    %rdx,%r8
    127f:	48 8d 15 ea 0d 00 00 	lea    0xdea(%rip),%rdx        # 2070 <cs.2>
    1286:	e8 b5 fe ff ff       	call   1140 <__printf_chk@plt>
}
    128b:	48 8b 44 24 18       	mov    0x18(%rsp),%rax
    1290:	64 48 2b 04 25 28 00 	sub    %fs:0x28,%rax
    1297:	00 00 
    1299:	75 11                	jne    12ac <main+0x14c>
    129b:	48 83 c4 28          	add    $0x28,%rsp
    129f:	31 c0                	xor    %eax,%eax
    12a1:	5b                   	pop    %rbx
    12a2:	5d                   	pop    %rbp
    12a3:	41 5c                	pop    %r12
    12a5:	41 5d                	pop    %r13
    12a7:	41 5e                	pop    %r14
    12a9:	41 5f                	pop    %r15
    12ab:	c3                   	ret
    12ac:	e8 2f fe ff ff       	call   10e0 <__stack_chk_fail@plt>
    12b1:	66 2e 0f 1f 84 00 00 	cs nopw 0x0(%rax,%rax,1)
    12b8:	00 00 00 
    12bb:	0f 1f 44 00 00       	nopl   0x0(%rax,%rax,1)

00000000000012c0 <_start>:
    12c0:	f3 0f 1e fa          	endbr64
    12c4:	31 ed                	xor    %ebp,%ebp
    12c6:	49 89 d1             	mov    %rdx,%r9
    12c9:	5e                   	pop    %rsi
    12ca:	48 89 e2             	mov    %rsp,%rdx
    12cd:	48 83 e4 f0          	and    $0xfffffffffffffff0,%rsp
    12d1:	50                   	push   %rax
    12d2:	54                   	push   %rsp
    12d3:	45 31 c0             	xor    %r8d,%r8d
    12d6:	31 c9                	xor    %ecx,%ecx
    12d8:	48 8d 3d 81 fe ff ff 	lea    -0x17f(%rip),%rdi        # 1160 <main>
    12df:	ff 15 f3 2c 00 00    	call   *0x2cf3(%rip)        # 3fd8 <__libc_start_main@GLIBC_2.34>
    12e5:	f4                   	hlt
    12e6:	66 2e 0f 1f 84 00 00 	cs nopw 0x0(%rax,%rax,1)
    12ed:	00 00 00 

00000000000012f0 <deregister_tm_clones>:
    12f0:	48 8d 3d 19 2d 00 00 	lea    0x2d19(%rip),%rdi        # 4010 <stdout@GLIBC_2.2.5>
    12f7:	48 8d 05 12 2d 00 00 	lea    0x2d12(%rip),%rax        # 4010 <stdout@GLIBC_2.2.5>
    12fe:	48 39 f8             	cmp    %rdi,%rax
    1301:	74 15                	je     1318 <deregister_tm_clones+0x28>
    1303:	48 8b 05 d6 2c 00 00 	mov    0x2cd6(%rip),%rax        # 3fe0 <_ITM_deregisterTMCloneTable@Base>
    130a:	48 85 c0             	test   %rax,%rax
    130d:	74 09                	je     1318 <deregister_tm_clones+0x28>
    130f:	ff e0                	jmp    *%rax
    1311:	0f 1f 80 00 00 00 00 	nopl   0x0(%rax)
    1318:	c3                   	ret
    1319:	0f 1f 80 00 00 00 00 	nopl   0x0(%rax)

0000000000001320 <register_tm_clones>:
    1320:	48 8d 3d e9 2c 00 00 	lea    0x2ce9(%rip),%rdi        # 4010 <stdout@GLIBC_2.2.5>
    1327:	48 8d 35 e2 2c 00 00 	lea    0x2ce2(%rip),%rsi        # 4010 <stdout@GLIBC_2.2.5>
    132e:	48 29 fe             	sub    %rdi,%rsi
    1331:	48 89 f0             	mov    %rsi,%rax
    1334:	48 c1 ee 3f          	shr    $0x3f,%rsi
    1338:	48 c1 f8 03          	sar    $0x3,%rax
    133c:	48 01 c6             	add    %rax,%rsi
    133f:	48 d1 fe             	sar    $1,%rsi
    1342:	74 14                	je     1358 <register_tm_clones+0x38>
    1344:	48 8b 05 a5 2c 00 00 	mov    0x2ca5(%rip),%rax        # 3ff0 <_ITM_registerTMCloneTable@Base>
    134b:	48 85 c0             	test   %rax,%rax
    134e:	74 08                	je     1358 <register_tm_clones+0x38>
    1350:	ff e0                	jmp    *%rax
    1352:	66 0f 1f 44 00 00    	nopw   0x0(%rax,%rax,1)
    1358:	c3                   	ret
    1359:	0f 1f 80 00 00 00 00 	nopl   0x0(%rax)

0000000000001360 <__do_global_dtors_aux>:
    1360:	f3 0f 1e fa          	endbr64
    1364:	80 3d ad 2c 00 00 00 	cmpb   $0x0,0x2cad(%rip)        # 4018 <completed.0>
    136b:	75 2b                	jne    1398 <__do_global_dtors_aux+0x38>
    136d:	55                   	push   %rbp
    136e:	48 83 3d 82 2c 00 00 	cmpq   $0x0,0x2c82(%rip)        # 3ff8 <__cxa_finalize@GLIBC_2.2.5>
    1375:	00 
    1376:	48 89 e5             	mov    %rsp,%rbp
    1379:	74 0c                	je     1387 <__do_global_dtors_aux+0x27>
    137b:	48 8b 3d 86 2c 00 00 	mov    0x2c86(%rip),%rdi        # 4008 <__dso_handle>
    1382:	e8 39 fd ff ff       	call   10c0 <__cxa_finalize@plt>
    1387:	e8 64 ff ff ff       	call   12f0 <deregister_tm_clones>
    138c:	c6 05 85 2c 00 00 01 	movb   $0x1,0x2c85(%rip)        # 4018 <completed.0>
    1393:	5d                   	pop    %rbp
    1394:	c3                   	ret
    1395:	0f 1f 00             	nopl   (%rax)
    1398:	c3                   	ret
    1399:	0f 1f 80 00 00 00 00 	nopl   0x0(%rax)

00000000000013a0 <frame_dummy>:
    13a0:	f3 0f 1e fa          	endbr64
    13a4:	e9 77 ff ff ff       	jmp    1320 <register_tm_clones>
    13a9:	0f 1f 80 00 00 00 00 	nopl   0x0(%rax)

00000000000013b0 <loops>:
#include <stdint.h>
#include "loops.h"

int loops(int u, int r) {
    13b0:	f3 0f 1e fa          	endbr64
    13b4:	55                   	push   %rbp
    13b5:	53                   	push   %rbx
    13b6:	4c 8d 9c 24 00 70 ff 	lea    -0x9000(%rsp),%r11
    13bd:	ff 
    13be:	48 81 ec 00 10 00 00 	sub    $0x1000,%rsp
    13c5:	48 83 0c 24 00       	orq    $0x0,(%rsp)
    13ca:	4c 39 dc             	cmp    %r11,%rsp
    13cd:	75 ef                	jne    13be <loops+0xe>
    13cf:	48 81 ec 58 0c 00 00 	sub    $0xc58,%rsp
  int32_t a[10000] = {0};            // Array of 10k elements initialized to 0
    13d6:	ba 40 9c 00 00       	mov    $0x9c40,%edx
int loops(int u, int r) {
    13db:	64 48 8b 04 25 28 00 	mov    %fs:0x28,%rax
    13e2:	00 00 
    13e4:	48 89 84 24 48 9c 00 	mov    %rax,0x9c48(%rsp)
    13eb:	00 
    13ec:	31 c0                	xor    %eax,%eax
  int32_t a[10000] = {0};            // Array of 10k elements initialized to 0
    13ee:	48 89 e1             	mov    %rsp,%rcx
int loops(int u, int r) {
    13f1:	89 fd                	mov    %edi,%ebp
    13f3:	48 63 de             	movslq %esi,%rbx
  int32_t a[10000] = {0};            // Array of 10k elements initialized to 0
    13f6:	48 89 cf             	mov    %rcx,%rdi
    13f9:	31 f6                	xor    %esi,%esi
    13fb:	e8 00 fd ff ff       	call   1100 <memset@plt>
  for (int i = 0; i < 10000; i++) {  // 10k outer loop iterations
    1400:	66 0f 6e fb          	movd   %ebx,%xmm7
    1404:	66 0f 6e ed          	movd   %ebp,%xmm5
    1408:	66 0f 6f 1d 70 0c 00 	movdqa 0xc70(%rip),%xmm3        # 2080 <cs.2+0x10>
    140f:	00 
    1410:	66 0f 70 ff 00       	pshufd $0x0,%xmm7,%xmm7
    1415:	48 89 c2             	mov    %rax,%rdx
    1418:	66 0f 70 ed 00       	pshufd $0x0,%xmm5,%xmm5
    141d:	48 8d 8c 24 40 9c 00 	lea    0x9c40(%rsp),%rcx
    1424:	00 
int loops(int u, int r) {
    1425:	66 0f ef f6          	pxor   %xmm6,%xmm6
      a[i] = a[i] + j++ % u;  // Simple sum
      a[i] = a[i] + j++ % u;  // Simple sum
      a[i] = a[i] + j++ % u;  // Simple sum
      a[i] = a[i] + j++ % u;  // Simple sum
#elif defined(NO_DIV)
    for (int j = 0, k = 0; j < 10000; j++, k++) {  // 10k inner loop iterations, per outer loop iteration
    1429:	66 0f 6f 12          	movdqa (%rdx),%xmm2
int loops(int u, int r) {
    142d:	66 0f ef c0          	pxor   %xmm0,%xmm0
    1431:	b8 10 27 00 00       	mov    $0x2710,%eax
    1436:	66 2e 0f 1f 84 00 00 	cs nopw 0x0(%rax,%rax,1)
    143d:	00 00 00 
      k = (k == u ? 0 : k);
    1440:	66 0f 6f c8          	movdqa %xmm0,%xmm1
    1444:	66 0f 76 cd          	pcmpeqd %xmm5,%xmm1
    1448:	66 0f 76 ce          	pcmpeqd %xmm6,%xmm1
    144c:	66 0f 6f e1          	movdqa %xmm1,%xmm4
    1450:	66 0f db e0          	pand   %xmm0,%xmm4
    for (int j = 0, k = 0; j < 10000; j++, k++) {  // 10k inner loop iterations, per outer loop iteration
    1454:	66 0f fe c3          	paddd  %xmm3,%xmm0
    1458:	66 0f db c1          	pand   %xmm1,%xmm0
    145c:	66 0f df cb          	pandn  %xmm3,%xmm1
    1460:	66 0f fe d4          	paddd  %xmm4,%xmm2
    1464:	66 0f eb c1          	por    %xmm1,%xmm0
    1468:	83 e8 01             	sub    $0x1,%eax
    146b:	75 d3                	jne    1440 <loops+0x90>
#else
    for (int j = 0; j < 10000; j++) {  // 10k inner loop iterations, per outer loop iteration
      a[i] = a[i] + j % u;  // Simple sum
#endif
    }
    a[i] += r;  // Add a random value to each element in array
    146d:	66 0f fe d7          	paddd  %xmm7,%xmm2
    1471:	48 83 c2 10          	add    $0x10,%rdx
    1475:	0f 29 52 f0          	movaps %xmm2,-0x10(%rdx)
  for (int i = 0; i < 10000; i++) {  // 10k outer loop iterations
    1479:	48 39 ca             	cmp    %rcx,%rdx
    147c:	75 ab                	jne    1429 <loops+0x79>
  }
  return a[r];
    147e:	8b 04 9c             	mov    (%rsp,%rbx,4),%eax
}
    1481:	48 8b 94 24 48 9c 00 	mov    0x9c48(%rsp),%rdx
    1488:	00 
    1489:	64 48 2b 14 25 28 00 	sub    %fs:0x28,%rdx
    1490:	00 00 
    1492:	75 0a                	jne    149e <loops+0xee>
    1494:	48 81 c4 58 9c 00 00 	add    $0x9c58,%rsp
    149b:	5b                   	pop    %rbx
    149c:	5d                   	pop    %rbp
    149d:	c3                   	ret
    149e:	e8 3d fc ff ff       	call   10e0 <__stack_chk_fail@plt>

Disassembly of section .fini:

00000000000014a4 <_fini>:
    14a4:	f3 0f 1e fa          	endbr64
    14a8:	48 83 ec 08          	sub    $0x8,%rsp
    14ac:	48 83 c4 08          	add    $0x8,%rsp
    14b0:	c3                   	ret
